; Function Attrs: mustprogress uwtable
define hidden noundef ptr @_Z14mk_smt2_solverR11ast_managerRK10params_refRK6symbol(ptr noundef nonnull align 8 dereferenceable(976) %m, ptr noundef nonnull align 8 dereferenceable(8) %p, ptr noundef nonnull align 8 dereferenceable(8) %logic) local_unnamed_addr #3 personality ptr @__gxx_personality_v0 {
entry:
  %sp = alloca %struct.sat_params, align 8
  store ptr %p, ptr %sp, align 8
  %g.i = getelementptr inbounds i8, ptr %sp, i64 8
  call void @_ZN7gparams10get_moduleEPKc(ptr nonnull sret(%class.params_ref) align 8 %g.i, ptr noundef nonnull @.str.27)
  %0 = load ptr, ptr %sp, align 8
  %call.i7 = invoke noundef zeroext i1 @_ZNK10params_ref8get_boolEPKcRKS_b(ptr noundef nonnull align 8 dereferenceable(8) %0, ptr noundef nonnull @.str.28, ptr noundef nonnull align 8 dereferenceable(8) %g.i, i1 noundef zeroext false)
          to label %invoke.cont unwind label %lpad

invoke.cont:                                      ; preds = %entry
  br i1 %call.i7, label %if.then, label %if.end

if.then:                                          ; preds = %invoke.cont
  %call2 = invoke noundef ptr @_Z17mk_sat_smt_solverR11ast_managerRK10params_ref(ptr noundef nonnull align 8 dereferenceable(976) %m, ptr noundef nonnull align 8 dereferenceable(8) %p)
          to label %cleanup unwind label %lpad

lpad:                                             ; preds = %if.end, %entry, %if.end8, %if.then5, %if.then
  %1 = landingpad { ptr, i32 }
          cleanup
  call void @_ZN10params_refD1Ev(ptr noundef nonnull align 8 dereferenceable(8) %g.i) #11
  resume { ptr, i32 } %1

if.end:                                           ; preds = %invoke.cont
  %2 = load ptr, ptr %sp, align 8
  %call.i10 = invoke noundef zeroext i1 @_ZNK10params_ref8get_boolEPKcRKS_b(ptr noundef nonnull align 8 dereferenceable(8) %2, ptr noundef nonnull @.str.29, ptr noundef nonnull align 8 dereferenceable(8) %g.i, i1 noundef zeroext false)
          to label %invoke.cont3 unwind label %lpad

invoke.cont3:                                     ; preds = %if.end
  br i1 %call.i10, label %if.then5, label %if.end8

if.then5:                                         ; preds = %invoke.cont3
  %call7 = invoke noundef ptr @_Z17mk_inc_sat_solverR11ast_managerRK10params_refb(ptr noundef nonnull align 8 dereferenceable(976) %m, ptr noundef nonnull align 8 dereferenceable(8) %p, i1 noundef zeroext true)
          to label %cleanup unwind label %lpad

if.end8:                                          ; preds = %invoke.cont3
  %call10 = invoke noundef ptr @_Z13mk_smt_solverR11ast_managerRK10params_refRK6symbol(ptr noundef nonnull align 8 dereferenceable(976) %m, ptr noundef nonnull align 8 dereferenceable(8) %p, ptr noundef nonnull align 8 dereferenceable(8) %logic)
          to label %cleanup unwind label %lpad

cleanup:                                          ; preds = %if.end8, %if.then5, %if.then
  %retval.0 = phi ptr [ %call2, %if.then ], [ %call7, %if.then5 ], [ %call10, %if.end8 ]
  call void @_ZN10params_refD1Ev(ptr noundef nonnull align 8 dereferenceable(8) %g.i) #11
  ret ptr %retval.0
}